; Function Attrs: mustprogress nofree norecurse nosync nounwind willreturn memory(argmem: read) uwtable
define noundef range(i32 0, 8193) i32 @_ZN6LibRaw13sraw_midpointEv(ptr noundef nonnull readonly align 8 captures(none) dereferenceable(767680) %0) local_unnamed_addr #12 align 2 {
  %2 = getelementptr inbounds nuw i8, ptr %0, i64 767584
  %.unpack = load i64, ptr %2, align 8, !tbaa !103
  %.elt1 = getelementptr inbounds nuw i8, ptr %0, i64 767592
  %.unpack2 = load i64, ptr %.elt1, align 8, !tbaa !103
  %3 = icmp eq i64 %.unpack, ptrtoint (ptr @_ZN6LibRaw19canon_sraw_load_rawEv to i64)
  %4 = icmp eq i64 %.unpack2, 0
  %5 = icmp eq i64 %.unpack, ptrtoint (ptr @_ZN6LibRaw19sony_ycbcr_load_rawEv to i64)
  %6 = or i1 %3, %5
  %or.cond = and i1 %6, %4
  %7 = icmp eq i64 %.unpack, ptrtoint (ptr @_ZN6LibRaw15nikon_load_srawEv to i64)
  %8 = and i1 %7, %4
  %. = select i1 %8, i32 2048, i32 0
  %.0 = select i1 %or.cond, i32 8192, i32 %.
  ret i32 %.0
}